; Function Attrs: mustprogress uwtable
define hidden void @_ZN2cv12ppf_match_3d14hashtablePrintEPNS0_8HSHTBL_iE(ptr noundef readonly captures(none) %0) local_unnamed_addr #10 {
  %2 = load i64, ptr %0, align 8, !tbaa !11
  %.not16 = icmp eq i64 %2, 0
  br i1 %.not16, label %._crit_edge15, label %.lr.ph14

.lr.ph14:                                         ; preds = %1
  %3 = getelementptr inbounds nuw i8, ptr %0, i64 8
  br label %4

4:                                                ; preds = %.lr.ph14, %._crit_edge
  %5 = phi i64 [ %2, %.lr.ph14 ], [ %38, %._crit_edge ]
  %.012 = phi i64 [ 0, %.lr.ph14 ], [ %39, %._crit_edge ]
  %6 = load ptr, ptr %3, align 8, !tbaa !3
  %7 = getelementptr inbounds nuw ptr, ptr %6, i64 %.012
  %8 = load ptr, ptr %7, align 8, !tbaa !13
  %.not10 = icmp eq ptr %8, null
  br i1 %.not10, label %._crit_edge, label %.lr.ph

.lr.ph:                                           ; preds = %4, %_ZSt4endlIcSt11char_traitsIcEERSt13basic_ostreamIT_T0_ES6_.exit
  %.0911 = phi ptr [ %10, %_ZSt4endlIcSt11char_traitsIcEERSt13basic_ostreamIT_T0_ES6_.exit ], [ %8, %4 ]
  %9 = getelementptr inbounds nuw i8, ptr %.0911, i64 16
  %10 = load ptr, ptr %9, align 8, !tbaa !15
  %11 = tail call noundef nonnull align 8 dereferenceable(8) ptr @_ZSt16__ostream_insertIcSt11char_traitsIcEERSt13basic_ostreamIT_T0_ES6_PKS3_l(ptr noundef nonnull align 8 dereferenceable(8) @_ZSt4cout, ptr noundef nonnull @.str, i64 noundef 6)
  %12 = load i32, ptr %.0911, align 8, !tbaa !21
  %13 = zext i32 %12 to i64
  %14 = tail call noundef nonnull align 8 dereferenceable(8) ptr @_ZNSo9_M_insertImEERSoT_(ptr noundef nonnull align 8 dereferenceable(8) @_ZSt4cout, i64 noundef %13)
  %15 = tail call noundef nonnull align 8 dereferenceable(8) ptr @_ZSt16__ostream_insertIcSt11char_traitsIcEERSt13basic_ostreamIT_T0_ES6_PKS3_l(ptr noundef nonnull align 8 dereferenceable(8) %14, ptr noundef nonnull @.str.1, i64 noundef 9)
  %16 = getelementptr inbounds nuw i8, ptr %.0911, i64 8
  %17 = load ptr, ptr %16, align 8, !tbaa !22
  %18 = tail call noundef nonnull align 8 dereferenceable(8) ptr @_ZNSo9_M_insertIPKvEERSoT_(ptr noundef nonnull align 8 dereferenceable(8) %14, ptr noundef %17)
  %19 = load ptr, ptr %18, align 8, !tbaa !33
  %20 = getelementptr i8, ptr %19, i64 -24
  %21 = load i64, ptr %20, align 8
  %22 = getelementptr inbounds i8, ptr %18, i64 %21
  %23 = getelementptr inbounds nuw i8, ptr %22, i64 240
  %24 = load ptr, ptr %23, align 8, !tbaa !35
  %.not.i.i.i = icmp eq ptr %24, null
  br i1 %.not.i.i.i, label %25, label %_ZSt13__check_facetISt5ctypeIcEERKT_PS3_.exit.i.i

25:                                               ; preds = %.lr.ph
  tail call void @_ZSt16__throw_bad_castv() #20
  unreachable

_ZSt13__check_facetISt5ctypeIcEERKT_PS3_.exit.i.i: ; preds = %.lr.ph
  %26 = getelementptr inbounds nuw i8, ptr %24, i64 56
  %27 = load i8, ptr %26, align 8, !tbaa !51
  %.not.i1.i.i = icmp eq i8 %27, 0
  br i1 %.not.i1.i.i, label %31, label %28

28:                                               ; preds = %_ZSt13__check_facetISt5ctypeIcEERKT_PS3_.exit.i.i
  %29 = getelementptr inbounds nuw i8, ptr %24, i64 67
  %30 = load i8, ptr %29, align 1, !tbaa !57
  br label %_ZSt4endlIcSt11char_traitsIcEERSt13basic_ostreamIT_T0_ES6_.exit

31:                                               ; preds = %_ZSt13__check_facetISt5ctypeIcEERKT_PS3_.exit.i.i
  tail call void @_ZNKSt5ctypeIcE13_M_widen_initEv(ptr noundef nonnull align 8 dereferenceable(570) %24)
  %32 = load ptr, ptr %24, align 8, !tbaa !33
  %33 = getelementptr inbounds nuw i8, ptr %32, i64 48
  %34 = load ptr, ptr %33, align 8
  %35 = tail call noundef signext i8 %34(ptr noundef nonnull align 8 dereferenceable(570) %24, i8 noundef signext 10)
  br label %_ZSt4endlIcSt11char_traitsIcEERSt13basic_ostreamIT_T0_ES6_.exit

_ZSt4endlIcSt11char_traitsIcEERSt13basic_ostreamIT_T0_ES6_.exit: ; preds = %28, %31
  %.0.i.i.i = phi i8 [ %30, %28 ], [ %35, %31 ]
  %36 = tail call noundef nonnull align 8 dereferenceable(8) ptr @_ZNSo3putEc(ptr noundef nonnull align 8 dereferenceable(8) %18, i8 noundef signext %.0.i.i.i)
  %37 = tail call noundef nonnull align 8 dereferenceable(8) ptr @_ZNSo5flushEv(ptr noundef nonnull align 8 dereferenceable(8) %36)
  %.not = icmp eq ptr %10, null
  br i1 %.not, label %._crit_edge.loopexit, label %.lr.ph, !llvm.loop !58

._crit_edge.loopexit:                             ; preds = %_ZSt4endlIcSt11char_traitsIcEERSt13basic_ostreamIT_T0_ES6_.exit
  %.pre = load i64, ptr %0, align 8, !tbaa !11
  br label %._crit_edge

._crit_edge:                                      ; preds = %._crit_edge.loopexit, %4
  %38 = phi i64 [ %.pre, %._crit_edge.loopexit ], [ %5, %4 ]
  %39 = add nuw i64 %.012, 1
  %40 = icmp ult i64 %39, %38
  br i1 %40, label %4, label %._crit_edge15, !llvm.loop !59

._crit_edge15:                                    ; preds = %._crit_edge, %1
  ret void
}